target datalayout = "e-m:e-p270:32:32-p271:32:32-p272:64:64-i64:64-i128:128-f80:128-n8:16:32:64-S128"
target triple = "x86_64-pc-linux-gnu"

%union.pthread_mutex_t = type { %struct.__pthread_mutex_s }
%struct.__pthread_mutex_s = type { i32, i32, i32, i32, i32, i16, i16, %struct.__pthread_internal_list }
%struct.__pthread_internal_list = type { ptr, ptr }
%struct.settings = type { i64, i32, i32, i32, ptr, i32, i32, i32, ptr, ptr, i32, double, i32, i32, i32, i8, i32, i32, i8, i32, i32, i32, i32, i32, i32, i8, i8, i8, i8, i8, i8, i8, i32, i32, double, double, i32, i32, i8, i32, i8, i8, ptr, i32, i32, i32, i32, double, double, i32, i8, i32, i32, i32, i32, i32, i8, i8, i8, ptr, i32, i32, i32, i32, i32, i32, i32, i32, i32, i32, double, i8, i32, i32, ptr, i32 }
%struct._crawler_module_t = type { ptr, %struct.crawler_client_t, ptr, i32 }
%struct.crawler_client_t = type { ptr, i32, i32, i32, ptr }
%struct.crawler = type { ptr, ptr, ptr, i32, i32, i32, i16, i16, i8, i8, i32, i64, i64, i64 }
%struct.crawler_expired_data = type { %union.pthread_mutex_t, [256 x %struct.crawlerstats_t], i32, i32, i8, i8 }
%struct.crawlerstats_t = type { [61 x i64], i64, i64, i64, i64, i32, i32, i8 }
%struct._stritem = type { ptr, ptr, ptr, i32, i32, i32, i16, i16, i8, i8, [0 x %union.anon] }
%union.anon = type { i64 }

@stderr = external global ptr, align 8
@settings = external global %struct.settings, align 8
@current_time = external global i32, align 4
@storage = internal global ptr null, align 8
@crawlers = internal global [256 x %struct.crawler] zeroinitializer, align 16
@.str.6 = private unnamed_addr constant [58 x i8] c"LRU crawler found an expired item (flags: %d, slab: %d): \00", align 1
@.str.7 = private unnamed_addr constant [3 x i8] c"%c\00", align 1
@.str.8 = private unnamed_addr constant [2 x i8] c"\0A\00", align 1

; Function Attrs: nounwind uwtable
define internal void @crawler_expired_eval(ptr noundef %0, ptr noundef %1, i32 noundef %2, i32 noundef %3) #0 {
  %5 = alloca ptr, align 8
  %6 = alloca ptr, align 8
  %7 = alloca i32, align 4
  %8 = alloca i32, align 4
  %9 = alloca ptr, align 8
  %10 = alloca ptr, align 8
  %11 = alloca i32, align 4
  %12 = alloca i8, align 1
  %13 = alloca i32, align 4
  %14 = alloca ptr, align 8
  %15 = alloca i32, align 4
  %16 = alloca i32, align 4
  store ptr %0, ptr %5, align 8, !tbaa !4
  store ptr %1, ptr %6, align 8, !tbaa !28
  store i32 %2, ptr %7, align 4, !tbaa !20
  store i32 %3, ptr %8, align 4, !tbaa !20
  call void @llvm.lifetime.start.p0(i64 8, ptr %9) #11
  %17 = load ptr, ptr %5, align 8, !tbaa !4
  %18 = getelementptr inbounds nuw %struct._crawler_module_t, ptr %17, i32 0, i32 0
  %19 = load ptr, ptr %18, align 8, !tbaa !16
  store ptr %19, ptr %9, align 8, !tbaa !10
  %20 = load ptr, ptr %9, align 8, !tbaa !10
  %21 = getelementptr inbounds nuw %struct.crawler_expired_data, ptr %20, i32 0, i32 0
  %22 = call i32 @pthread_mutex_lock(ptr noundef %21) #11
  call void @llvm.lifetime.start.p0(i64 8, ptr %10) #11
  %23 = load ptr, ptr %9, align 8, !tbaa !10
  %24 = getelementptr inbounds nuw %struct.crawler_expired_data, ptr %23, i32 0, i32 1
  %25 = load i32, ptr %8, align 4, !tbaa !20
  %26 = sext i32 %25 to i64
  %27 = getelementptr inbounds [256 x %struct.crawlerstats_t], ptr %24, i64 0, i64 %26
  store ptr %27, ptr %10, align 8, !tbaa !9
  call void @llvm.lifetime.start.p0(i64 4, ptr %11) #11
  %28 = load ptr, ptr %6, align 8, !tbaa !28
  %29 = call i32 @item_is_flushed(ptr noundef %28)
  store i32 %29, ptr %11, align 4, !tbaa !20
  call void @llvm.lifetime.start.p0(i64 1, ptr %12) #11
  store i8 1, ptr %12, align 1, !tbaa !30
  %30 = load ptr, ptr %6, align 8, !tbaa !28
  %31 = getelementptr inbounds nuw %struct._stritem, ptr %30, i32 0, i32 7
  %32 = load i16, ptr %31, align 2, !tbaa !31
  %33 = zext i16 %32 to i32
  %34 = and i32 %33, 128
  %35 = icmp ne i32 %34, 0
  br i1 %35, label %36, label %41

36:                                               ; preds = %4
  %37 = load ptr, ptr @storage, align 8, !tbaa !9
  %38 = load ptr, ptr %6, align 8, !tbaa !28
  %39 = call zeroext i1 @storage_validate_item(ptr noundef %37, ptr noundef %38)
  %40 = zext i1 %39 to i8
  store i8 %40, ptr %12, align 1, !tbaa !30
  br label %41

41:                                               ; preds = %36, %4
  %42 = load ptr, ptr %6, align 8, !tbaa !28
  %43 = getelementptr inbounds nuw %struct._stritem, ptr %42, i32 0, i32 4
  %44 = load i32, ptr %43, align 4, !tbaa !20
  %45 = icmp ne i32 %44, 0
  br i1 %45, label %46, label %52

46:                                               ; preds = %41
  %47 = load ptr, ptr %6, align 8, !tbaa !28
  %48 = getelementptr inbounds nuw %struct._stritem, ptr %47, i32 0, i32 4
  %49 = load i32, ptr %48, align 4, !tbaa !20
  %50 = load volatile i32, ptr @current_time, align 4, !tbaa !20
  %51 = icmp ult i32 %49, %50
  br i1 %51, label %58, label %52

52:                                               ; preds = %46, %41
  %53 = load i32, ptr %11, align 4, !tbaa !20
  %54 = icmp ne i32 %53, 0
  br i1 %54, label %58, label %55

55:                                               ; preds = %52
  %56 = load i8, ptr %12, align 1, !tbaa !30, !range !33, !noundef !34
  %57 = trunc i8 %56 to i1
  br i1 %57, label %140, label %58

58:                                               ; preds = %55, %52, %46
  %59 = load i32, ptr %8, align 4, !tbaa !20
  %60 = sext i32 %59 to i64
  %61 = getelementptr inbounds [256 x %struct.crawler], ptr @crawlers, i64 0, i64 %60
  %62 = getelementptr inbounds nuw %struct.crawler, ptr %61, i32 0, i32 11
  %63 = load i64, ptr %62, align 8, !tbaa !35
  %64 = add i64 %63, 1
  store i64 %64, ptr %62, align 8, !tbaa !35
  %65 = load ptr, ptr %10, align 8, !tbaa !9
  %66 = getelementptr inbounds nuw %struct.crawlerstats_t, ptr %65, i32 0, i32 3
  %67 = load i64, ptr %66, align 8, !tbaa !37
  %68 = add i64 %67, 1
  store i64 %68, ptr %66, align 8, !tbaa !37
  %69 = load i32, ptr getelementptr inbounds nuw (%struct.settings, ptr @settings, i32 0, i32 5), align 8, !tbaa !38
  %70 = icmp sgt i32 %69, 1
  br i1 %70, label %71, label %114

71:                                               ; preds = %58
  call void @llvm.lifetime.start.p0(i64 4, ptr %13) #11
  call void @llvm.lifetime.start.p0(i64 8, ptr %14) #11
  %72 = load ptr, ptr %6, align 8, !tbaa !28
  %73 = getelementptr inbounds nuw %struct._stritem, ptr %72, i32 0, i32 10
  %74 = load ptr, ptr %6, align 8, !tbaa !28
  %75 = getelementptr inbounds nuw %struct._stritem, ptr %74, i32 0, i32 7
  %76 = load i16, ptr %75, align 2, !tbaa !31
  %77 = zext i16 %76 to i32
  %78 = and i32 %77, 2
  %79 = icmp ne i32 %78, 0
  %80 = select i1 %79, i64 8, i64 0
  %81 = getelementptr inbounds nuw i8, ptr %73, i64 %80
  store ptr %81, ptr %14, align 8, !tbaa !42
  %82 = load ptr, ptr @stderr, align 8, !tbaa !43
  %83 = load ptr, ptr %6, align 8, !tbaa !28
  %84 = getelementptr inbounds nuw %struct._stritem, ptr %83, i32 0, i32 7
  %85 = load i16, ptr %84, align 2, !tbaa !31
  %86 = zext i16 %85 to i32
  %87 = load ptr, ptr %6, align 8, !tbaa !28
  %88 = getelementptr inbounds nuw %struct._stritem, ptr %87, i32 0, i32 8
  %89 = load i8, ptr %88, align 8, !tbaa !45
  %90 = zext i8 %89 to i32
  %91 = call i32 (ptr, ptr, ...) @fprintf(ptr noundef %82, ptr noundef @.str.6, i32 noundef %86, i32 noundef %90) #11
  store i32 0, ptr %13, align 4, !tbaa !20
  br label %92

92:                                               ; preds = %108, %71
  %93 = load i32, ptr %13, align 4, !tbaa !20
  %94 = load ptr, ptr %6, align 8, !tbaa !28
  %95 = getelementptr inbounds nuw %struct._stritem, ptr %94, i32 0, i32 9
  %96 = load i8, ptr %95, align 1, !tbaa !45
  %97 = zext i8 %96 to i32
  %98 = icmp slt i32 %93, %97
  br i1 %98, label %99, label %111

99:                                               ; preds = %92
  %100 = load ptr, ptr @stderr, align 8, !tbaa !43
  %101 = load ptr, ptr %14, align 8, !tbaa !42
  %102 = load i32, ptr %13, align 4, !tbaa !20
  %103 = sext i32 %102 to i64
  %104 = getelementptr inbounds i8, ptr %101, i64 %103
  %105 = load i8, ptr %104, align 1, !tbaa !45
  %106 = sext i8 %105 to i32
  %107 = call i32 (ptr, ptr, ...) @fprintf(ptr noundef %100, ptr noundef @.str.7, i32 noundef %106) #11
  br label %108

108:                                              ; preds = %99
  %109 = load i32, ptr %13, align 4, !tbaa !20
  %110 = add nsw i32 %109, 1
  store i32 %110, ptr %13, align 4, !tbaa !20
  br label %92, !llvm.loop !46

111:                                              ; preds = %92
  %112 = load ptr, ptr @stderr, align 8, !tbaa !43
  %113 = call i32 (ptr, ptr, ...) @fprintf(ptr noundef %112, ptr noundef @.str.8) #11
  call void @llvm.lifetime.end.p0(i64 8, ptr %14) #11
  call void @llvm.lifetime.end.p0(i64 4, ptr %13) #11
  br label %114

114:                                              ; preds = %111, %58
  %115 = load ptr, ptr %6, align 8, !tbaa !28
  %116 = getelementptr inbounds nuw %struct._stritem, ptr %115, i32 0, i32 7
  %117 = load i16, ptr %116, align 2, !tbaa !31
  %118 = zext i16 %117 to i32
  %119 = and i32 %118, 8
  %120 = icmp eq i32 %119, 0
  br i1 %120, label %121, label %131

121:                                              ; preds = %114
  %122 = load i32, ptr %11, align 4, !tbaa !20
  %123 = icmp ne i32 %122, 0
  br i1 %123, label %131, label %124

124:                                              ; preds = %121
  %125 = load i32, ptr %8, align 4, !tbaa !20
  %126 = sext i32 %125 to i64
  %127 = getelementptr inbounds [256 x %struct.crawler], ptr @crawlers, i64 0, i64 %126
  %128 = getelementptr inbounds nuw %struct.crawler, ptr %127, i32 0, i32 12
  %129 = load i64, ptr %128, align 8, !tbaa !47
  %130 = add i64 %129, 1
  store i64 %130, ptr %128, align 8, !tbaa !47
  br label %131

131:                                              ; preds = %124, %121, %114
  br label %132

132:                                              ; preds = %131
  %133 = load ptr, ptr @storage, align 8, !tbaa !9
  %134 = load ptr, ptr %6, align 8, !tbaa !28
  call void @storage_delete(ptr noundef %133, ptr noundef %134)
  br label %135

135:                                              ; preds = %132
  br label %136

136:                                              ; preds = %135
  %137 = load ptr, ptr %6, align 8, !tbaa !28
  %138 = load i32, ptr %7, align 4, !tbaa !20
  call void @do_item_unlink_nolock(ptr noundef %137, i32 noundef %138)
  %139 = load ptr, ptr %6, align 8, !tbaa !28
  call void @do_item_remove(ptr noundef %139)
  br label %191

140:                                              ; preds = %55
  %141 = load ptr, ptr %10, align 8, !tbaa !9
  %142 = getelementptr inbounds nuw %struct.crawlerstats_t, ptr %141, i32 0, i32 4
  %143 = load i64, ptr %142, align 8, !tbaa !48
  %144 = add i64 %143, 1
  store i64 %144, ptr %142, align 8, !tbaa !48
  %145 = load ptr, ptr %6, align 8, !tbaa !28
  %146 = getelementptr inbounds nuw %struct._stritem, ptr %145, i32 0, i32 6
  %147 = load i16, ptr %146, align 4, !tbaa !31
  %148 = add i16 %147, -1
  store i16 %148, ptr %146, align 4, !tbaa !31
  %149 = load ptr, ptr %6, align 8, !tbaa !28
  %150 = getelementptr inbounds nuw %struct._stritem, ptr %149, i32 0, i32 4
  %151 = load i32, ptr %150, align 4, !tbaa !20
  %152 = icmp eq i32 %151, 0
  br i1 %152, label %153, label %158

153:                                              ; preds = %140
  %154 = load ptr, ptr %10, align 8, !tbaa !9
  %155 = getelementptr inbounds nuw %struct.crawlerstats_t, ptr %154, i32 0, i32 2
  %156 = load i64, ptr %155, align 8, !tbaa !49
  %157 = add i64 %156, 1
  store i64 %157, ptr %155, align 8, !tbaa !49
  br label %190

158:                                              ; preds = %140
  %159 = load ptr, ptr %6, align 8, !tbaa !28
  %160 = getelementptr inbounds nuw %struct._stritem, ptr %159, i32 0, i32 4
  %161 = load i32, ptr %160, align 4, !tbaa !20
  %162 = load volatile i32, ptr @current_time, align 4, !tbaa !20
  %163 = sub i32 %161, %162
  %164 = icmp ugt i32 %163, 3599
  br i1 %164, label %165, label %170

165:                                              ; preds = %158
  %166 = load ptr, ptr %10, align 8, !tbaa !9
  %167 = getelementptr inbounds nuw %struct.crawlerstats_t, ptr %166, i32 0, i32 1
  %168 = load i64, ptr %167, align 8, !tbaa !50
  %169 = add i64 %168, 1
  store i64 %169, ptr %167, align 8, !tbaa !50
  br label %189

170:                                              ; preds = %158
  call void @llvm.lifetime.start.p0(i64 4, ptr %15) #11
  %171 = load ptr, ptr %6, align 8, !tbaa !28
  %172 = getelementptr inbounds nuw %struct._stritem, ptr %171, i32 0, i32 4
  %173 = load i32, ptr %172, align 4, !tbaa !20
  %174 = load volatile i32, ptr @current_time, align 4, !tbaa !20
  %175 = sub i32 %173, %174
  store i32 %175, ptr %15, align 4, !tbaa !20
  call void @llvm.lifetime.start.p0(i64 4, ptr %16) #11
  %176 = load i32, ptr %15, align 4, !tbaa !20
  %177 = udiv i32 %176, 60
  store i32 %177, ptr %16, align 4, !tbaa !20
  %178 = load i32, ptr %16, align 4, !tbaa !20
  %179 = icmp sle i32 %178, 60
  br i1 %179, label %180, label %188

180:                                              ; preds = %170
  %181 = load ptr, ptr %10, align 8, !tbaa !9
  %182 = getelementptr inbounds nuw %struct.crawlerstats_t, ptr %181, i32 0, i32 0
  %183 = load i32, ptr %16, align 4, !tbaa !20
  %184 = sext i32 %183 to i64
  %185 = getelementptr inbounds [61 x i64], ptr %182, i64 0, i64 %184
  %186 = load i64, ptr %185, align 8, !tbaa !51
  %187 = add i64 %186, 1
  store i64 %187, ptr %185, align 8, !tbaa !51
  br label %188

188:                                              ; preds = %180, %170
  call void @llvm.lifetime.end.p0(i64 4, ptr %16) #11
  call void @llvm.lifetime.end.p0(i64 4, ptr %15) #11
  br label %189

189:                                              ; preds = %188, %165
  br label %190

190:                                              ; preds = %189, %153
  br label %191

191:                                              ; preds = %190, %136
  %192 = load ptr, ptr %9, align 8, !tbaa !10
  %193 = getelementptr inbounds nuw %struct.crawler_expired_data, ptr %192, i32 0, i32 0
  %194 = call i32 @pthread_mutex_unlock(ptr noundef %193) #11
  call void @llvm.lifetime.end.p0(i64 1, ptr %12) #11
  call void @llvm.lifetime.end.p0(i64 4, ptr %11) #11
  call void @llvm.lifetime.end.p0(i64 8, ptr %10) #11
  call void @llvm.lifetime.end.p0(i64 8, ptr %9) #11
  ret void
}