; Function Attrs: nounwind uwtable
define internal void @crawler_expired_eval(ptr noundef readonly captures(none) %0, ptr noundef %1, i32 noundef %2, i32 noundef %3) #0 {
  %5 = load ptr, ptr %0, align 8, !tbaa !12
  %6 = tail call i32 @pthread_mutex_lock(ptr noundef %5) #18
  %7 = getelementptr inbounds nuw i8, ptr %5, i64 40
  %8 = sext i32 %3 to i64
  %9 = getelementptr inbounds [256 x %struct.crawlerstats_t], ptr %7, i64 0, i64 %8
  %10 = tail call i32 @item_is_flushed(ptr noundef %1) #18
  %11 = getelementptr inbounds nuw i8, ptr %1, i64 38
  %12 = load i16, ptr %11, align 2, !tbaa !23
  %13 = and i16 %12, 128
  %.not = icmp eq i16 %13, 0
  br i1 %.not, label %18, label %14

14:                                               ; preds = %4
  %15 = load ptr, ptr @storage, align 8, !tbaa !25
  %16 = tail call zeroext i1 @storage_validate_item(ptr noundef %15, ptr noundef nonnull %1) #18
  %17 = xor i1 %16, true
  br label %18

18:                                               ; preds = %14, %4
  %.0 = phi i1 [ %17, %14 ], [ false, %4 ]
  %19 = getelementptr inbounds nuw i8, ptr %1, i64 28
  %20 = load i32, ptr %19, align 4, !tbaa !10
  %.not49 = icmp eq i32 %20, 0
  br i1 %.not49, label %25, label %21

21:                                               ; preds = %18
  %22 = load volatile i32, ptr @current_time, align 4, !tbaa !10
  %23 = icmp ult i32 %20, %22
  %24 = icmp ne i32 %10, 0
  %or.cond = select i1 %23, i1 true, i1 %24
  %brmerge = select i1 %or.cond, i1 true, i1 %.0
  br i1 %brmerge, label %26, label %79

25:                                               ; preds = %18
  %.old1.not = icmp ne i32 %10, 0
  %brmerge53 = select i1 %.old1.not, i1 true, i1 %.0
  br i1 %brmerge53, label %26, label %69

26:                                               ; preds = %25, %21
  %27 = getelementptr inbounds [256 x %struct.crawler], ptr @crawlers, i64 0, i64 %8
  %28 = getelementptr inbounds nuw i8, ptr %27, i64 48
  %29 = load i64, ptr %28, align 8, !tbaa !26
  %30 = add i64 %29, 1
  store i64 %30, ptr %28, align 8, !tbaa !26
  %31 = getelementptr inbounds nuw i8, ptr %9, i64 504
  %32 = load i64, ptr %31, align 8, !tbaa !29
  %33 = add i64 %32, 1
  store i64 %33, ptr %31, align 8, !tbaa !29
  %34 = load i32, ptr getelementptr inbounds nuw (i8, ptr @settings, i64 32), align 8, !tbaa !30
  %35 = icmp sgt i32 %34, 1
  %.pre57 = load i16, ptr %11, align 2, !tbaa !23
  br i1 %35, label %36, label %58

36:                                               ; preds = %26
  %37 = getelementptr inbounds nuw i8, ptr %1, i64 48
  %38 = zext i16 %.pre57 to i32
  %39 = shl nuw nsw i32 %38, 2
  %40 = and i32 %39, 8
  %41 = zext nneg i32 %40 to i64
  %42 = getelementptr inbounds nuw i8, ptr %37, i64 %41
  %43 = load ptr, ptr @stderr, align 8, !tbaa !34
  %44 = getelementptr inbounds nuw i8, ptr %1, i64 40
  %45 = load i8, ptr %44, align 8, !tbaa !36
  %46 = zext i8 %45 to i32
  %47 = tail call i32 (ptr, ptr, ...) @fprintf(ptr noundef %43, ptr noundef nonnull @.str.6, i32 noundef %38, i32 noundef %46) #19
  %48 = getelementptr inbounds nuw i8, ptr %1, i64 41
  %49 = load i8, ptr %48, align 1, !tbaa !36
  %.not55 = icmp eq i8 %49, 0
  br i1 %.not55, label %._crit_edge, label %.lr.ph

.lr.ph:                                           ; preds = %36, %.lr.ph
  %indvars.iv = phi i64 [ %indvars.iv.next, %.lr.ph ], [ 0, %36 ]
  %50 = load ptr, ptr @stderr, align 8, !tbaa !34
  %51 = getelementptr inbounds nuw i8, ptr %42, i64 %indvars.iv
  %52 = load i8, ptr %51, align 1, !tbaa !36
  %53 = sext i8 %52 to i32
  %fputc51 = tail call i32 @fputc(i32 %53, ptr %50)
  %indvars.iv.next = add nuw nsw i64 %indvars.iv, 1
  %54 = load i8, ptr %48, align 1, !tbaa !36
  %55 = zext i8 %54 to i64
  %56 = icmp samesign ult i64 %indvars.iv.next, %55
  br i1 %56, label %.lr.ph, label %._crit_edge, !llvm.loop !37

._crit_edge:                                      ; preds = %.lr.ph, %36
  %57 = load ptr, ptr @stderr, align 8, !tbaa !34
  %fputc = tail call i32 @fputc(i32 10, ptr %57)
  %.pre = load i16, ptr %11, align 2, !tbaa !23
  br label %58

58:                                               ; preds = %._crit_edge, %26
  %59 = phi i16 [ %.pre, %._crit_edge ], [ %.pre57, %26 ]
  %60 = and i16 %59, 8
  %61 = icmp ne i16 %60, 0
  %62 = icmp ne i32 %10, 0
  %or.cond4 = select i1 %61, i1 true, i1 %62
  br i1 %or.cond4, label %67, label %63

63:                                               ; preds = %58
  %64 = getelementptr inbounds nuw i8, ptr %27, i64 56
  %65 = load i64, ptr %64, align 8, !tbaa !38
  %66 = add i64 %65, 1
  store i64 %66, ptr %64, align 8, !tbaa !38
  br label %67

67:                                               ; preds = %58, %63
  %68 = load ptr, ptr @storage, align 8, !tbaa !25
  tail call void @storage_delete(ptr noundef %68, ptr noundef nonnull %1) #18
  tail call void @do_item_unlink_nolock(ptr noundef nonnull %1, i32 noundef %2) #18
  tail call void @do_item_remove(ptr noundef nonnull %1) #18
  br label %103

69:                                               ; preds = %25
  %70 = getelementptr inbounds nuw i8, ptr %9, i64 512
  %71 = load i64, ptr %70, align 8, !tbaa !39
  %72 = add i64 %71, 1
  store i64 %72, ptr %70, align 8, !tbaa !39
  %73 = getelementptr inbounds nuw i8, ptr %1, i64 36
  %74 = load i16, ptr %73, align 4, !tbaa !23
  %75 = add i16 %74, -1
  store i16 %75, ptr %73, align 4, !tbaa !23
  %76 = getelementptr inbounds nuw i8, ptr %9, i64 496
  %77 = load i64, ptr %76, align 8, !tbaa !40
  %78 = add i64 %77, 1
  store i64 %78, ptr %76, align 8, !tbaa !40
  br label %103

79:                                               ; preds = %21
  %80 = getelementptr inbounds nuw i8, ptr %9, i64 512
  %81 = load i64, ptr %80, align 8, !tbaa !39
  %82 = add i64 %81, 1
  store i64 %82, ptr %80, align 8, !tbaa !39
  %83 = getelementptr inbounds nuw i8, ptr %1, i64 36
  %84 = load i16, ptr %83, align 4, !tbaa !23
  %85 = add i16 %84, -1
  store i16 %85, ptr %83, align 4, !tbaa !23
  %86 = load volatile i32, ptr @current_time, align 4, !tbaa !10
  %87 = sub i32 %20, %86
  %88 = icmp ugt i32 %87, 3599
  br i1 %88, label %89, label %93

89:                                               ; preds = %79
  %90 = getelementptr inbounds nuw i8, ptr %9, i64 488
  %91 = load i64, ptr %90, align 8, !tbaa !41
  %92 = add i64 %91, 1
  store i64 %92, ptr %90, align 8, !tbaa !41
  br label %103

93:                                               ; preds = %79
  %94 = load volatile i32, ptr @current_time, align 4, !tbaa !10
  %95 = sub i32 %20, %94
  %96 = icmp ult i32 %95, 3660
  br i1 %96, label %97, label %103

97:                                               ; preds = %93
  %.lhs.trunc = trunc nuw i32 %95 to i16
  %98 = udiv i16 %.lhs.trunc, 60
  %99 = zext nneg i16 %98 to i64
  %100 = getelementptr inbounds nuw [61 x i64], ptr %9, i64 0, i64 %99
  %101 = load i64, ptr %100, align 8, !tbaa !42
  %102 = add i64 %101, 1
  store i64 %102, ptr %100, align 8, !tbaa !42
  br label %103

103:                                              ; preds = %93, %97, %69, %89, %67
  %104 = tail call i32 @pthread_mutex_unlock(ptr noundef %5) #18
  ret void
}